target datalayout = "e-m:e-p270:32:32-p271:32:32-p272:64:64-i64:64-i128:128-f80:128-n8:16:32:64-S128"
target triple = "x86_64-pc-linux-gnu"

; Function Attrs: mustprogress nounwind uwtable
define i32 @u_strncmp_77(ptr noundef %0, ptr noundef %1, i32 noundef %2) #3 {
  %4 = alloca i32, align 4
  %5 = alloca ptr, align 8
  %6 = alloca ptr, align 8
  %7 = alloca i32, align 4
  %8 = alloca i32, align 4
  store ptr %0, ptr %5, align 8, !tbaa !3
  store ptr %1, ptr %6, align 8, !tbaa !3
  store i32 %2, ptr %7, align 4, !tbaa !8
  %9 = load i32, ptr %7, align 4, !tbaa !8
  %10 = icmp sgt i32 %9, 0
  br i1 %10, label %11, label %38

11:                                               ; preds = %3
  call void @llvm.lifetime.start.p0(i64 4, ptr %8) #7
  br label %12

12:                                               ; preds = %33, %11
  %13 = load ptr, ptr %5, align 8, !tbaa !3
  %14 = load i16, ptr %13, align 2, !tbaa !10
  %15 = zext i16 %14 to i32
  %16 = load ptr, ptr %6, align 8, !tbaa !3
  %17 = load i16, ptr %16, align 2, !tbaa !10
  %18 = zext i16 %17 to i32
  %19 = sub nsw i32 %15, %18
  store i32 %19, ptr %8, align 4, !tbaa !8
  %20 = load i32, ptr %8, align 4, !tbaa !8
  %21 = icmp ne i32 %20, 0
  br i1 %21, label %31, label %22

22:                                               ; preds = %12
  %23 = load ptr, ptr %5, align 8, !tbaa !3
  %24 = load i16, ptr %23, align 2, !tbaa !10
  %25 = zext i16 %24 to i32
  %26 = icmp eq i32 %25, 0
  br i1 %26, label %31, label %27

27:                                               ; preds = %22
  %28 = load i32, ptr %7, align 4, !tbaa !8
  %29 = add nsw i32 %28, -1
  store i32 %29, ptr %7, align 4, !tbaa !8
  %30 = icmp eq i32 %29, 0
  br i1 %30, label %31, label %33

31:                                               ; preds = %27, %22, %12
  %32 = load i32, ptr %8, align 4, !tbaa !8
  store i32 %32, ptr %4, align 4
  call void @llvm.lifetime.end.p0(i64 4, ptr %8) #7
  br label %39

33:                                               ; preds = %27
  %34 = load ptr, ptr %5, align 8, !tbaa !3
  %35 = getelementptr inbounds nuw i16, ptr %34, i32 1
  store ptr %35, ptr %5, align 8, !tbaa !3
  %36 = load ptr, ptr %6, align 8, !tbaa !3
  %37 = getelementptr inbounds nuw i16, ptr %36, i32 1
  store ptr %37, ptr %6, align 8, !tbaa !3
  br label %12, !llvm.loop !59

38:                                               ; preds = %3
  store i32 0, ptr %4, align 4
  br label %39

39:                                               ; preds = %38, %31
  %40 = load i32, ptr %4, align 4
  ret i32 %40
}