; Function Attrs: mustprogress nofree norecurse nosync nounwind willreturn memory(argmem: read) uwtable
define range(i32 -65535, 65536) i32 @u_strncmp_77(ptr noundef readonly captures(none) %0, ptr noundef readonly captures(none) %1, i32 noundef %2) local_unnamed_addr #2 {
  %4 = icmp sgt i32 %2, 0
  br i1 %4, label %.preheader, label %.loopexit

.preheader:                                       ; preds = %3
  %5 = load i16, ptr %0, align 2, !tbaa !3
  %6 = zext i16 %5 to i32
  %7 = load i16, ptr %1, align 2, !tbaa !3
  %8 = zext i16 %7 to i32
  %9 = sub nsw i32 %6, %8
  %.not14 = icmp ne i32 %9, 0
  %10 = icmp eq i16 %5, 0
  %or.cond15 = or i1 %10, %.not14
  br i1 %or.cond15, label %.loopexit, label %.lr.ph

.lr.ph:                                           ; preds = %.preheader, %13
  %.0918 = phi i32 [ %11, %13 ], [ %2, %.preheader ]
  %.01017 = phi ptr [ %15, %13 ], [ %1, %.preheader ]
  %.01116 = phi ptr [ %14, %13 ], [ %0, %.preheader ]
  %11 = add nsw i32 %.0918, -1
  %12 = icmp eq i32 %11, 0
  br i1 %12, label %.loopexit, label %13

13:                                               ; preds = %.lr.ph
  %14 = getelementptr inbounds nuw i8, ptr %.01116, i64 2
  %15 = getelementptr inbounds nuw i8, ptr %.01017, i64 2
  %16 = load i16, ptr %14, align 2, !tbaa !3
  %17 = zext i16 %16 to i32
  %18 = load i16, ptr %15, align 2, !tbaa !3
  %19 = zext i16 %18 to i32
  %20 = sub nsw i32 %17, %19
  %.not = icmp ne i32 %20, 0
  %21 = icmp eq i16 %16, 0
  %or.cond = or i1 %21, %.not
  br i1 %or.cond, label %.loopexit, label %.lr.ph, !llvm.loop !50

.loopexit:                                        ; preds = %.lr.ph, %13, %.preheader, %3
  %.0 = phi i32 [ 0, %3 ], [ %9, %.preheader ], [ 0, %.lr.ph ], [ %20, %13 ]
  ret i32 %.0
}